; Function Attrs: nounwind uwtable
define void @Gia_ManDumpSuppFileTest(ptr noundef %0, ptr noundef %1) local_unnamed_addr #2 {
  %3 = tail call ptr @Gia_ManComputeSupports(ptr noundef %0)
  %4 = tail call ptr @Gia_ManConvertDump(ptr noundef %0, ptr noundef %3)
  tail call void @Gia_ManDumpSuppFile(ptr noundef %4, ptr noundef %1)
  %5 = load i32, ptr %3, align 8
  %6 = icmp sgt i32 %5, 0
  %7 = getelementptr inbounds nuw i8, ptr %3, i64 8
  %8 = load ptr, ptr %7, align 8
  br i1 %6, label %.lr.ph.i.i, label %._crit_edge.i.i

.lr.ph.i.i:                                       ; preds = %2
  %9 = zext nneg i32 %5 to i64
  br label %10

10:                                               ; preds = %14, %.lr.ph.i.i
  %indvars.iv.i.i = phi i64 [ 0, %.lr.ph.i.i ], [ %indvars.iv.next.i.i, %14 ]
  %11 = getelementptr inbounds nuw %struct.Vec_Int_t_, ptr %8, i64 %indvars.iv.i.i, i32 2
  %12 = load ptr, ptr %11, align 8
  %.not15.i.i = icmp eq ptr %12, null
  br i1 %.not15.i.i, label %14, label %13

13:                                               ; preds = %10
  tail call void @free(ptr noundef nonnull %12) #36
  store ptr null, ptr %11, align 8
  br label %14

14:                                               ; preds = %13, %10
  %indvars.iv.next.i.i = add nuw nsw i64 %indvars.iv.i.i, 1
  %exitcond.not = icmp eq i64 %indvars.iv.next.i.i, %9
  br i1 %exitcond.not, label %._crit_edge.i.i.thread, label %10, !llvm.loop !111

._crit_edge.i.i:                                  ; preds = %2
  %.not.i.i = icmp eq ptr %8, null
  br i1 %.not.i.i, label %Vec_WecFree.exit, label %._crit_edge.i.i.thread

._crit_edge.i.i.thread:                           ; preds = %14, %._crit_edge.i.i
  tail call void @free(ptr noundef nonnull %8) #36
  br label %Vec_WecFree.exit

Vec_WecFree.exit:                                 ; preds = %._crit_edge.i.i, %._crit_edge.i.i.thread
  tail call void @free(ptr noundef nonnull %3) #36
  %15 = getelementptr inbounds nuw i8, ptr %4, i64 8
  %16 = load ptr, ptr %15, align 8
  %.not.i = icmp eq ptr %16, null
  br i1 %.not.i, label %Vec_StrFree.exit, label %17

17:                                               ; preds = %Vec_WecFree.exit
  tail call void @free(ptr noundef nonnull %16) #36
  br label %Vec_StrFree.exit

Vec_StrFree.exit:                                 ; preds = %Vec_WecFree.exit, %17
  tail call void @free(ptr noundef nonnull %4) #36
  ret void
}